target datalayout = "e-m:e-p270:32:32-p271:32:32-p272:64:64-i64:64-i128:128-f80:128-n8:16:32:64-S128"
target triple = "x86_64-pc-linux-gnu"

%struct.sockaddr_storage = type { i16, [118 x i8], i64 }
%struct.AVFormatContext = type { ptr, ptr, ptr, ptr, ptr, i32, i32, ptr, i32, ptr, i32, ptr, ptr, i64, i64, i64, i32, i32, i32, i64, i64, ptr, i32, i32, ptr, i32, i32, i32, i32, ptr, i64, i32, i32, %struct.AVIOInterruptCB, i32, i32, i32, i32, i64, i32, i32, i32, i32, i32, i32, i32, i32, i32, i32, i32, i32, i64, i32, i32, i32, i32, i32, ptr, ptr, ptr, ptr, i32, ptr, ptr, ptr, ptr, i32, ptr, ptr, i64, ptr, ptr, ptr, i64 }
%struct.AVIOInterruptCB = type { ptr, ptr }
%struct.RTSPState = type { ptr, ptr, i32, ptr, i32, i64, i32, [512 x i8], i32, i64, i32, i32, i32, [64 x i8], [128 x i8], %struct.HTTPAuthState, [2048 x i8], ptr, i32, ptr, ptr, [1024 x i8], ptr, i64, [4096 x i8], ptr, i32, i32, ptr, i32, i32, ptr, i32, i64, ptr, i32, i32, i32, i32, i32, i32, i32, i32, i32, i32, i64, i32, ptr, [4 x i8], i32, i32, ptr }
%struct.HTTPAuthState = type { i32, [200 x i8], %struct.DigestParams, i32 }
%struct.DigestParams = type { [300 x i8], [10 x i8], [30 x i8], [300 x i8], [10 x i8], i32 }
%struct.RTSPStream = type { ptr, ptr, i32, i32, i32, [4096 x i8], i32, %struct.sockaddr_storage, i32, ptr, i32, ptr, i32, i32, ptr, ptr, i32, i32, [40 x i8], [100 x i8] }
%struct.AVStream = type { ptr, i32, i32, ptr, ptr, %struct.AVRational, i64, i64, i64, i32, i32, %struct.AVRational, ptr, %struct.AVRational, %struct.AVPacket, i32, %struct.AVRational, i32 }
%struct.AVPacket = type { ptr, i64, i64, ptr, i32, i32, i32, ptr, i32, i64, i64, ptr, ptr, %struct.AVRational }
%struct.AVRational = type { i32, i32 }
%struct.RTPDemuxContext = type { ptr, ptr, i32, i32, i16, i32, i32, i64, i64, i32, [256 x i8], i32, %struct.SRTPContext, %struct.RTPStatistics, i32, ptr, i32, i32, i64, i64, i64, i32, i64, i32, i32, i32, i64, ptr, ptr }
%struct.SRTPContext = type { ptr, ptr, i32, i32, [16 x i8], [14 x i8], [16 x i8], [16 x i8], [14 x i8], [14 x i8], [20 x i8], [20 x i8], i32, i32, i32, i32 }
%struct.RTPStatistics = type { i16, i32, i32, i32, i32, i32, i32, i32, i32, i32 }

; Function Attrs: nounwind uwtable
define i32 @ff_rtsp_open_transport_ctx(ptr noundef %0, ptr noundef %1) #0 {
  %3 = alloca i32, align 4
  %4 = alloca ptr, align 8
  %5 = alloca ptr, align 8
  %6 = alloca ptr, align 8
  %7 = alloca ptr, align 8
  %8 = alloca i32, align 4
  %9 = alloca i32, align 4
  %10 = alloca i32, align 4
  %11 = alloca ptr, align 8
  store ptr %0, ptr %4, align 8, !tbaa !15
  store ptr %1, ptr %5, align 8, !tbaa !63
  call void @llvm.lifetime.start.p0(i64 8, ptr %6) #13
  %12 = load ptr, ptr %4, align 8, !tbaa !15
  %13 = getelementptr inbounds nuw %struct.AVFormatContext, ptr %12, i32 0, i32 3
  %14 = load ptr, ptr %13, align 8, !tbaa !33
  store ptr %14, ptr %6, align 8, !tbaa !46
  call void @llvm.lifetime.start.p0(i64 8, ptr %7) #13
  store ptr null, ptr %7, align 8, !tbaa !84
  call void @llvm.lifetime.start.p0(i64 4, ptr %8) #13
  %15 = load ptr, ptr %6, align 8, !tbaa !46
  %16 = getelementptr inbounds nuw %struct.RTSPState, ptr %15, i32 0, i32 46
  %17 = load i32, ptr %16, align 8, !tbaa !126
  store i32 %17, ptr %8, align 4, !tbaa !12
  %18 = load i32, ptr %8, align 4, !tbaa !12
  %19 = icmp slt i32 %18, 0
  br i1 %19, label %20, label %33

20:                                               ; preds = %2
  %21 = load ptr, ptr %6, align 8, !tbaa !46
  %22 = getelementptr inbounds nuw %struct.RTSPState, ptr %21, i32 0, i32 11
  %23 = load i32, ptr %22, align 4, !tbaa !114
  %24 = icmp eq i32 %23, 1
  br i1 %24, label %30, label %25

25:                                               ; preds = %20
  %26 = load ptr, ptr %4, align 8, !tbaa !15
  %27 = getelementptr inbounds nuw %struct.AVFormatContext, ptr %26, i32 0, i32 17
  %28 = load i32, ptr %27, align 4, !tbaa !127
  %29 = icmp ne i32 %28, 0
  br i1 %29, label %31, label %30

30:                                               ; preds = %25, %20
  store i32 0, ptr %8, align 4, !tbaa !12
  br label %32

31:                                               ; preds = %25
  store i32 500, ptr %8, align 4, !tbaa !12
  br label %32

32:                                               ; preds = %31, %30
  br label %33

33:                                               ; preds = %32, %2
  %34 = load ptr, ptr %5, align 8, !tbaa !63
  %35 = getelementptr inbounds nuw %struct.RTSPStream, ptr %34, i32 0, i32 2
  %36 = load i32, ptr %35, align 8, !tbaa !73
  %37 = icmp sge i32 %36, 0
  br i1 %37, label %38, label %48

38:                                               ; preds = %33
  %39 = load ptr, ptr %4, align 8, !tbaa !15
  %40 = getelementptr inbounds nuw %struct.AVFormatContext, ptr %39, i32 0, i32 7
  %41 = load ptr, ptr %40, align 8, !tbaa !99
  %42 = load ptr, ptr %5, align 8, !tbaa !63
  %43 = getelementptr inbounds nuw %struct.RTSPStream, ptr %42, i32 0, i32 2
  %44 = load i32, ptr %43, align 8, !tbaa !73
  %45 = sext i32 %44 to i64
  %46 = getelementptr inbounds ptr, ptr %41, i64 %45
  %47 = load ptr, ptr %46, align 8, !tbaa !84
  store ptr %47, ptr %7, align 8, !tbaa !84
  br label %48

48:                                               ; preds = %38, %33
  %49 = load ptr, ptr %7, align 8, !tbaa !84
  %50 = icmp ne ptr %49, null
  br i1 %50, label %56, label %51

51:                                               ; preds = %48
  %52 = load ptr, ptr %4, align 8, !tbaa !15
  %53 = getelementptr inbounds nuw %struct.AVFormatContext, ptr %52, i32 0, i32 5
  %54 = load i32, ptr %53, align 8, !tbaa !128
  %55 = or i32 %54, 1
  store i32 %55, ptr %53, align 8, !tbaa !128
  br label %56

56:                                               ; preds = %51, %48
  %57 = load ptr, ptr %4, align 8, !tbaa !15
  %58 = getelementptr inbounds nuw %struct.AVFormatContext, ptr %57, i32 0, i32 2
  %59 = load ptr, ptr %58, align 8, !tbaa !113
  %60 = icmp ne ptr %59, null
  br i1 %60, label %61, label %99

61:                                               ; preds = %56
  %62 = load ptr, ptr %7, align 8, !tbaa !84
  %63 = icmp ne ptr %62, null
  br i1 %63, label %64, label %99

64:                                               ; preds = %61
  call void @llvm.lifetime.start.p0(i64 4, ptr %9) #13
  %65 = load ptr, ptr %5, align 8, !tbaa !63
  %66 = getelementptr inbounds nuw %struct.RTSPStream, ptr %65, i32 0, i32 1
  %67 = load ptr, ptr %4, align 8, !tbaa !15
  %68 = load ptr, ptr %7, align 8, !tbaa !84
  %69 = load ptr, ptr %5, align 8, !tbaa !63
  %70 = getelementptr inbounds nuw %struct.RTSPStream, ptr %69, i32 0, i32 0
  %71 = load ptr, ptr %70, align 8, !tbaa !129
  %72 = load ptr, ptr %6, align 8, !tbaa !46
  %73 = getelementptr inbounds nuw %struct.RTSPState, ptr %72, i32 0, i32 50
  %74 = load i32, ptr %73, align 8, !tbaa !130
  %75 = load ptr, ptr %5, align 8, !tbaa !63
  %76 = getelementptr inbounds nuw %struct.RTSPStream, ptr %75, i32 0, i32 2
  %77 = load i32, ptr %76, align 8, !tbaa !73
  %78 = call i32 @ff_rtp_chain_mux_open(ptr noundef %66, ptr noundef %67, ptr noundef %68, ptr noundef %71, i32 noundef %74, i32 noundef %77)
  store i32 %78, ptr %9, align 4, !tbaa !12
  %79 = load ptr, ptr %5, align 8, !tbaa !63
  %80 = getelementptr inbounds nuw %struct.RTSPStream, ptr %79, i32 0, i32 0
  store ptr null, ptr %80, align 8, !tbaa !129
  %81 = load i32, ptr %9, align 4, !tbaa !12
  %82 = icmp slt i32 %81, 0
  br i1 %82, label %83, label %85

83:                                               ; preds = %64
  %84 = load i32, ptr %9, align 4, !tbaa !12
  store i32 %84, ptr %3, align 4
  store i32 1, ptr %10, align 4
  br label %96

85:                                               ; preds = %64
  %86 = load ptr, ptr %7, align 8, !tbaa !84
  %87 = getelementptr inbounds nuw %struct.AVStream, ptr %86, i32 0, i32 5
  %88 = load ptr, ptr %5, align 8, !tbaa !63
  %89 = getelementptr inbounds nuw %struct.RTSPStream, ptr %88, i32 0, i32 1
  %90 = load ptr, ptr %89, align 8, !tbaa !112
  %91 = getelementptr inbounds nuw %struct.AVFormatContext, ptr %90, i32 0, i32 7
  %92 = load ptr, ptr %91, align 8, !tbaa !99
  %93 = getelementptr inbounds ptr, ptr %92, i64 0
  %94 = load ptr, ptr %93, align 8, !tbaa !84
  %95 = getelementptr inbounds nuw %struct.AVStream, ptr %94, i32 0, i32 5
  call void @llvm.memcpy.p0.p0.i64(ptr align 8 %87, ptr align 8 %95, i64 8, i1 false), !tbaa.struct !131
  store i32 0, ptr %10, align 4
  br label %96

96:                                               ; preds = %85, %83
  call void @llvm.lifetime.end.p0(i64 4, ptr %9) #13
  %97 = load i32, ptr %10, align 4
  switch i32 %97, label %197 [
    i32 0, label %98
  ]

98:                                               ; preds = %96
  br label %139

99:                                               ; preds = %61, %56
  %100 = load ptr, ptr %6, align 8, !tbaa !46
  %101 = getelementptr inbounds nuw %struct.RTSPState, ptr %100, i32 0, i32 10
  %102 = load i32, ptr %101, align 8, !tbaa !78
  %103 = icmp eq i32 %102, 2
  br i1 %103, label %104, label %105

104:                                              ; preds = %99
  store i32 0, ptr %3, align 4
  store i32 1, ptr %10, align 4
  br label %197

105:                                              ; preds = %99
  %106 = load ptr, ptr %6, align 8, !tbaa !46
  %107 = getelementptr inbounds nuw %struct.RTSPState, ptr %106, i32 0, i32 10
  %108 = load i32, ptr %107, align 8, !tbaa !78
  %109 = icmp eq i32 %108, 1
  br i1 %109, label %110, label %127

110:                                              ; preds = %105
  %111 = load ptr, ptr %7, align 8, !tbaa !84
  %112 = icmp ne ptr %111, null
  br i1 %112, label %113, label %127

113:                                              ; preds = %110
  %114 = load ptr, ptr %4, align 8, !tbaa !15
  %115 = load ptr, ptr %7, align 8, !tbaa !84
  %116 = getelementptr inbounds nuw %struct.AVStream, ptr %115, i32 0, i32 1
  %117 = load i32, ptr %116, align 8, !tbaa !93
  %118 = load ptr, ptr %5, align 8, !tbaa !63
  %119 = getelementptr inbounds nuw %struct.RTSPStream, ptr %118, i32 0, i32 15
  %120 = load ptr, ptr %119, align 8, !tbaa !111
  %121 = load ptr, ptr %5, align 8, !tbaa !63
  %122 = getelementptr inbounds nuw %struct.RTSPStream, ptr %121, i32 0, i32 14
  %123 = load ptr, ptr %122, align 8, !tbaa !108
  %124 = call ptr @ff_rdt_parse_open(ptr noundef %114, i32 noundef %117, ptr noundef %120, ptr noundef %123)
  %125 = load ptr, ptr %5, align 8, !tbaa !63
  %126 = getelementptr inbounds nuw %struct.RTSPStream, ptr %125, i32 0, i32 1
  store ptr %124, ptr %126, align 8, !tbaa !112
  br label %137

127:                                              ; preds = %110, %105
  %128 = load ptr, ptr %4, align 8, !tbaa !15
  %129 = load ptr, ptr %7, align 8, !tbaa !84
  %130 = load ptr, ptr %5, align 8, !tbaa !63
  %131 = getelementptr inbounds nuw %struct.RTSPStream, ptr %130, i32 0, i32 13
  %132 = load i32, ptr %131, align 4, !tbaa !80
  %133 = load i32, ptr %8, align 4, !tbaa !12
  %134 = call ptr @ff_rtp_parse_open(ptr noundef %128, ptr noundef %129, i32 noundef %132, i32 noundef %133)
  %135 = load ptr, ptr %5, align 8, !tbaa !63
  %136 = getelementptr inbounds nuw %struct.RTSPStream, ptr %135, i32 0, i32 1
  store ptr %134, ptr %136, align 8, !tbaa !112
  br label %137

137:                                              ; preds = %127, %113
  br label %138

138:                                              ; preds = %137
  br label %139

139:                                              ; preds = %138, %98
  %140 = load ptr, ptr %5, align 8, !tbaa !63
  %141 = getelementptr inbounds nuw %struct.RTSPStream, ptr %140, i32 0, i32 1
  %142 = load ptr, ptr %141, align 8, !tbaa !112
  %143 = icmp ne ptr %142, null
  br i1 %143, label %145, label %144

144:                                              ; preds = %139
  store i32 -12, ptr %3, align 4
  store i32 1, ptr %10, align 4
  br label %197

145:                                              ; preds = %139
  %146 = load ptr, ptr %6, align 8, !tbaa !46
  %147 = getelementptr inbounds nuw %struct.RTSPState, ptr %146, i32 0, i32 10
  %148 = load i32, ptr %147, align 8, !tbaa !78
  %149 = icmp eq i32 %148, 0
  br i1 %149, label %150, label %195

150:                                              ; preds = %145
  %151 = load ptr, ptr %4, align 8, !tbaa !15
  %152 = getelementptr inbounds nuw %struct.AVFormatContext, ptr %151, i32 0, i32 1
  %153 = load ptr, ptr %152, align 8, !tbaa !132
  %154 = icmp ne ptr %153, null
  br i1 %154, label %155, label %195

155:                                              ; preds = %150
  call void @llvm.lifetime.start.p0(i64 8, ptr %11) #13
  %156 = load ptr, ptr %5, align 8, !tbaa !63
  %157 = getelementptr inbounds nuw %struct.RTSPStream, ptr %156, i32 0, i32 1
  %158 = load ptr, ptr %157, align 8, !tbaa !112
  store ptr %158, ptr %11, align 8, !tbaa !133
  %159 = load ptr, ptr %5, align 8, !tbaa !63
  %160 = getelementptr inbounds nuw %struct.RTSPStream, ptr %159, i32 0, i32 17
  %161 = load i32, ptr %160, align 4, !tbaa !100
  %162 = load ptr, ptr %11, align 8, !tbaa !133
  %163 = getelementptr inbounds nuw %struct.RTPDemuxContext, ptr %162, i32 0, i32 3
  store i32 %161, ptr %163, align 4, !tbaa !135
  %164 = load ptr, ptr %5, align 8, !tbaa !63
  %165 = getelementptr inbounds nuw %struct.RTSPStream, ptr %164, i32 0, i32 14
  %166 = load ptr, ptr %165, align 8, !tbaa !108
  %167 = icmp ne ptr %166, null
  br i1 %167, label %168, label %178

168:                                              ; preds = %155
  %169 = load ptr, ptr %5, align 8, !tbaa !63
  %170 = getelementptr inbounds nuw %struct.RTSPStream, ptr %169, i32 0, i32 1
  %171 = load ptr, ptr %170, align 8, !tbaa !112
  %172 = load ptr, ptr %5, align 8, !tbaa !63
  %173 = getelementptr inbounds nuw %struct.RTSPStream, ptr %172, i32 0, i32 15
  %174 = load ptr, ptr %173, align 8, !tbaa !111
  %175 = load ptr, ptr %5, align 8, !tbaa !63
  %176 = getelementptr inbounds nuw %struct.RTSPStream, ptr %175, i32 0, i32 14
  %177 = load ptr, ptr %176, align 8, !tbaa !108
  call void @ff_rtp_parse_set_dynamic_protocol(ptr noundef %171, ptr noundef %174, ptr noundef %177)
  br label %178

178:                                              ; preds = %168, %155
  %179 = load ptr, ptr %5, align 8, !tbaa !63
  %180 = getelementptr inbounds nuw %struct.RTSPStream, ptr %179, i32 0, i32 18
  %181 = getelementptr inbounds [40 x i8], ptr %180, i64 0, i64 0
  %182 = load i8, ptr %181, align 8, !tbaa !14
  %183 = icmp ne i8 %182, 0
  br i1 %183, label %184, label %194

184:                                              ; preds = %178
  %185 = load ptr, ptr %5, align 8, !tbaa !63
  %186 = getelementptr inbounds nuw %struct.RTSPStream, ptr %185, i32 0, i32 1
  %187 = load ptr, ptr %186, align 8, !tbaa !112
  %188 = load ptr, ptr %5, align 8, !tbaa !63
  %189 = getelementptr inbounds nuw %struct.RTSPStream, ptr %188, i32 0, i32 18
  %190 = getelementptr inbounds [40 x i8], ptr %189, i64 0, i64 0
  %191 = load ptr, ptr %5, align 8, !tbaa !63
  %192 = getelementptr inbounds nuw %struct.RTSPStream, ptr %191, i32 0, i32 19
  %193 = getelementptr inbounds [100 x i8], ptr %192, i64 0, i64 0
  call void @ff_rtp_parse_set_crypto(ptr noundef %187, ptr noundef %190, ptr noundef %193)
  br label %194

194:                                              ; preds = %184, %178
  call void @llvm.lifetime.end.p0(i64 8, ptr %11) #13
  br label %195

195:                                              ; preds = %194, %150, %145
  br label %196

196:                                              ; preds = %195
  store i32 0, ptr %3, align 4
  store i32 1, ptr %10, align 4
  br label %197

197:                                              ; preds = %196, %144, %104, %96
  call void @llvm.lifetime.end.p0(i64 4, ptr %8) #13
  call void @llvm.lifetime.end.p0(i64 8, ptr %7) #13
  call void @llvm.lifetime.end.p0(i64 8, ptr %6) #13
  %198 = load i32, ptr %3, align 4
  ret i32 %198
}