; Function Attrs: nounwind uwtable
define range(i32 -2147483648, 1) i32 @ff_rtsp_open_transport_ctx(ptr noundef %0, ptr noundef %1) local_unnamed_addr #2 {
  %3 = getelementptr inbounds nuw i8, ptr %0, i64 24
  %4 = load ptr, ptr %3, align 8, !tbaa !20
  %5 = getelementptr inbounds nuw i8, ptr %4, i64 8976
  %6 = load i32, ptr %5, align 8, !tbaa !146
  %7 = icmp slt i32 %6, 0
  br i1 %7, label %8, label %15

8:                                                ; preds = %2
  %9 = getelementptr inbounds nuw i8, ptr %4, i64 580
  %10 = load i32, ptr %9, align 4, !tbaa !135
  %11 = icmp eq i32 %10, 1
  br i1 %11, label %15, label %12

12:                                               ; preds = %8
  %13 = getelementptr inbounds nuw i8, ptr %0, i64 124
  %14 = load i32, ptr %13, align 4, !tbaa !147
  %.not = icmp eq i32 %14, 0
  %spec.select = select i1 %.not, i32 0, i32 500
  br label %15

15:                                               ; preds = %12, %8, %2
  %.056 = phi i32 [ %6, %2 ], [ 0, %8 ], [ %spec.select, %12 ]
  %16 = getelementptr inbounds nuw i8, ptr %1, i64 16
  %17 = load i32, ptr %16, align 8, !tbaa !67
  %18 = icmp sgt i32 %17, -1
  br i1 %18, label %19, label %.thread68

19:                                               ; preds = %15
  %20 = getelementptr inbounds nuw i8, ptr %0, i64 48
  %21 = load ptr, ptr %20, align 8, !tbaa !114
  %22 = zext nneg i32 %17 to i64
  %23 = getelementptr inbounds nuw ptr, ptr %21, i64 %22
  %24 = load ptr, ptr %23, align 8, !tbaa !115
  %.not72 = icmp eq ptr %24, null
  br i1 %.not72, label %.thread68, label %28

.thread68:                                        ; preds = %19, %15
  %25 = getelementptr inbounds nuw i8, ptr %0, i64 40
  %26 = load i32, ptr %25, align 8, !tbaa !148
  %27 = or i32 %26, 1
  store i32 %27, ptr %25, align 8, !tbaa !148
  br label %46

28:                                               ; preds = %19
  %29 = getelementptr inbounds nuw i8, ptr %0, i64 16
  %30 = load ptr, ptr %29, align 8, !tbaa !134
  %.not73 = icmp eq ptr %30, null
  br i1 %.not73, label %46, label %31

31:                                               ; preds = %28
  %32 = getelementptr inbounds nuw i8, ptr %1, i64 8
  %33 = load ptr, ptr %1, align 8, !tbaa !149
  %34 = getelementptr inbounds nuw i8, ptr %4, i64 9000
  %35 = load i32, ptr %34, align 8, !tbaa !150
  %36 = tail call i32 @ff_rtp_chain_mux_open(ptr noundef nonnull %32, ptr noundef nonnull %0, ptr noundef nonnull %24, ptr noundef %33, i32 noundef %35, i32 noundef %17) #15
  store ptr null, ptr %1, align 8, !tbaa !149
  %37 = icmp sgt i32 %36, -1
  br i1 %37, label %38, label %.critedge

38:                                               ; preds = %31
  %39 = getelementptr inbounds nuw i8, ptr %24, i64 32
  %40 = load ptr, ptr %32, align 8, !tbaa !133
  %41 = getelementptr inbounds nuw i8, ptr %40, i64 48
  %42 = load ptr, ptr %41, align 8, !tbaa !114
  %43 = load ptr, ptr %42, align 8, !tbaa !115
  %44 = getelementptr inbounds nuw i8, ptr %43, i64 32
  %45 = load i64, ptr %44, align 8
  store i64 %45, ptr %39, align 8
  %.pre = load ptr, ptr %32, align 8, !tbaa !133
  br label %67

46:                                               ; preds = %.thread68, %28
  %.0556771 = phi ptr [ null, %.thread68 ], [ %24, %28 ]
  %47 = phi i1 [ false, %.thread68 ], [ true, %28 ]
  %48 = getelementptr inbounds nuw i8, ptr %4, i64 576
  %49 = load i32, ptr %48, align 8, !tbaa !75
  %50 = icmp eq i32 %49, 2
  br i1 %50, label %.critedge, label %51

51:                                               ; preds = %46
  %52 = icmp eq i32 %49, 1
  %or.cond3 = and i1 %47, %52
  br i1 %or.cond3, label %53, label %62

53:                                               ; preds = %51
  %54 = getelementptr inbounds nuw i8, ptr %.0556771, i64 8
  %55 = load i32, ptr %54, align 8, !tbaa !93
  %56 = getelementptr inbounds nuw i8, ptr %1, i64 4304
  %57 = load ptr, ptr %56, align 8, !tbaa !82
  %58 = getelementptr inbounds nuw i8, ptr %1, i64 4296
  %59 = load ptr, ptr %58, align 8, !tbaa !79
  %60 = tail call ptr @ff_rdt_parse_open(ptr noundef nonnull %0, i32 noundef %55, ptr noundef %57, ptr noundef %59) #15
  %61 = getelementptr inbounds nuw i8, ptr %1, i64 8
  store ptr %60, ptr %61, align 8, !tbaa !133
  br label %67

62:                                               ; preds = %51
  %63 = getelementptr inbounds nuw i8, ptr %1, i64 4292
  %64 = load i32, ptr %63, align 4, !tbaa !77
  %65 = tail call ptr @ff_rtp_parse_open(ptr noundef nonnull %0, ptr noundef %.0556771, i32 noundef %64, i32 noundef %.056) #15
  %66 = getelementptr inbounds nuw i8, ptr %1, i64 8
  store ptr %65, ptr %66, align 8, !tbaa !133
  br label %67

67:                                               ; preds = %38, %62, %53
  %68 = phi ptr [ %.pre, %38 ], [ %65, %62 ], [ %60, %53 ]
  %69 = getelementptr inbounds nuw i8, ptr %1, i64 8
  %.not61 = icmp eq ptr %68, null
  br i1 %.not61, label %.critedge, label %70

70:                                               ; preds = %67
  %71 = getelementptr inbounds nuw i8, ptr %4, i64 576
  %72 = load i32, ptr %71, align 8, !tbaa !75
  %73 = icmp eq i32 %72, 0
  br i1 %73, label %74, label %.critedge

74:                                               ; preds = %70
  %75 = getelementptr inbounds nuw i8, ptr %0, i64 8
  %76 = load ptr, ptr %75, align 8, !tbaa !151
  %.not62 = icmp eq ptr %76, null
  br i1 %.not62, label %.critedge, label %77

77:                                               ; preds = %74
  %78 = getelementptr inbounds nuw i8, ptr %1, i64 4316
  %79 = load i32, ptr %78, align 4, !tbaa !126
  %80 = getelementptr inbounds nuw i8, ptr %68, i64 20
  store i32 %79, ptr %80, align 4, !tbaa !152
  %81 = getelementptr inbounds nuw i8, ptr %1, i64 4296
  %82 = load ptr, ptr %81, align 8, !tbaa !79
  %.not63 = icmp eq ptr %82, null
  br i1 %.not63, label %86, label %83

83:                                               ; preds = %77
  %84 = getelementptr inbounds nuw i8, ptr %1, i64 4304
  %85 = load ptr, ptr %84, align 8, !tbaa !82
  tail call void @ff_rtp_parse_set_dynamic_protocol(ptr noundef nonnull %68, ptr noundef %85, ptr noundef nonnull %82) #15
  br label %86

86:                                               ; preds = %83, %77
  %87 = getelementptr inbounds nuw i8, ptr %1, i64 4320
  %88 = load i8, ptr %87, align 8, !tbaa !9
  %.not64 = icmp eq i8 %88, 0
  br i1 %.not64, label %.critedge, label %89

89:                                               ; preds = %86
  %90 = load ptr, ptr %69, align 8, !tbaa !133
  %91 = getelementptr inbounds nuw i8, ptr %1, i64 4360
  tail call void @ff_rtp_parse_set_crypto(ptr noundef %90, ptr noundef nonnull %87, ptr noundef nonnull %91) #15
  br label %.critedge

.critedge:                                        ; preds = %31, %74, %70, %89, %86, %67, %46
  %.1 = phi i32 [ 0, %46 ], [ -12, %67 ], [ 0, %86 ], [ 0, %89 ], [ 0, %70 ], [ 0, %74 ], [ %36, %31 ]
  ret i32 %.1
}